; Function Attrs: nounwind uwtable
define internal fastcc void @free_buffers(ptr %.32.val) unnamed_addr #1 {
  %1 = getelementptr inbounds nuw i8, ptr %.32.val, i64 80
  tail call void @av_freep(ptr noundef nonnull %1) #10
  %2 = getelementptr inbounds nuw i8, ptr %.32.val, i64 88
  tail call void @av_freep(ptr noundef nonnull %2) #10
  %3 = getelementptr inbounds nuw i8, ptr %.32.val, i64 96
  tail call void @av_freep(ptr noundef nonnull %3) #10
  ret void
}